target datalayout = "e-m:e-p270:32:32-p271:32:32-p272:64:64-i64:64-i128:128-f80:128-n8:16:32:64-S128"
target triple = "x86_64-pc-linux-gnu"

%struct.DecodedFrames = type { ptr, i64, i64 }
%struct.AVCodecContext = type { ptr, i32, i32, ptr, i32, i32, ptr, ptr, ptr, i64, i32, i32, ptr, i32, %struct.AVRational, %struct.AVRational, %struct.AVRational, i32, i32, i32, i32, i32, %struct.AVRational, i32, i32, i32, i32, i32, i32, i32, i32, i32, i32, i32, ptr, ptr, i32, float, float, float, float, float, float, float, float, float, i32, i32, i32, i32, i32, i32, i32, i32, i32, i32, i32, i32, ptr, ptr, ptr, i32, i32, i32, i32, i32, i32, i32, i32, i32, i32, %struct.AVChannelLayout, i32, i32, i32, i32, i32, i32, i32, i32, ptr, i32, i32, i32, float, float, i32, i32, i32, i32, i32, ptr, i64, i64, float, float, i32, i32, ptr, ptr, i32, i32, i32, i32, i32, ptr, ptr, ptr, ptr, i32, i32, [8 x i64], i32, i32, i32, i32, i32, i32, i32, ptr, ptr, i32, i32, i32, i32, i32, i32, i32, i32, i32, i32, ptr, ptr, i32, i32, ptr, ptr, ptr, ptr, i32, i32, i64, i32, i32, i64, ptr, i64, ptr, i32, ptr, i32 }
%struct.AVRational = type { i32, i32 }
%struct.AVChannelLayout = type { i32, i32, %union.anon, ptr }
%union.anon = type { i64 }
%struct.AVCodecInternal = type { i32, i32, i32, ptr, ptr, ptr, ptr, ptr, ptr, ptr, i32, ptr, ptr, ptr, i32, i32, ptr, i32, ptr, ptr, i32, i32 }
%struct.FrameThreadContext = type { ptr, ptr, i32, %union.pthread_mutex_t, %union.pthread_mutex_t, %union.pthread_mutex_t, %union.pthread_cond_t, i32, %struct.DecodedFrames, i32, ptr, i32, i32, ptr, ptr, ptr }
%union.pthread_mutex_t = type { %struct.__pthread_mutex_s }
%struct.__pthread_mutex_s = type { i32, i32, i32, i32, i32, i16, i16, %struct.__pthread_internal_list }
%struct.__pthread_internal_list = type { ptr, ptr }
%union.pthread_cond_t = type { %struct.__pthread_cond_s }
%struct.__pthread_cond_s = type { %union.__atomic_wide_counter, %union.__atomic_wide_counter, [2 x i32], [2 x i32], i32, i32, [2 x i32] }
%union.__atomic_wide_counter = type { i64 }
%struct.PerThreadContext = type { ptr, i64, i32, i32, %union.pthread_cond_t, %union.pthread_cond_t, %union.pthread_cond_t, %union.pthread_mutex_t, %union.pthread_mutex_t, ptr, ptr, %struct.DecodedFrames, i32, i32, i32, i32, i32, i32, i32, i32, i32 }

; Function Attrs: cold nounwind optsize uwtable
define i32 @ff_thread_sync_ref(ptr noundef %0, i64 noundef %1) #7 {
  %3 = alloca i32, align 4
  %4 = alloca ptr, align 8
  %5 = alloca i64, align 8
  %6 = alloca ptr, align 8
  %7 = alloca ptr, align 8
  %8 = alloca i32, align 4
  store ptr %0, ptr %4, align 8, !tbaa !4
  store i64 %1, ptr %5, align 8, !tbaa !62
  call void @llvm.lifetime.start.p0(i64 8, ptr %6) #9
  call void @llvm.lifetime.start.p0(i64 8, ptr %7) #9
  %9 = load ptr, ptr %4, align 8, !tbaa !4
  %10 = getelementptr inbounds nuw %struct.AVCodecContext, ptr %9, i32 0, i32 7
  %11 = load ptr, ptr %10, align 8, !tbaa !11
  %12 = getelementptr inbounds nuw %struct.AVCodecInternal, ptr %11, i32 0, i32 0
  %13 = load i32, ptr %12, align 8, !tbaa !173
  %14 = icmp ne i32 %13, 0
  br i1 %14, label %22, label %15

15:                                               ; preds = %2
  %16 = load ptr, ptr %4, align 8, !tbaa !4
  %17 = getelementptr inbounds nuw %struct.AVCodecContext, ptr %16, i32 0, i32 118
  %18 = load i32, ptr %17, align 8, !tbaa !140
  %19 = and i32 %18, 1
  %20 = icmp ne i32 %19, 0
  %21 = select i1 %20, i32 1, i32 2
  store i32 %21, ptr %3, align 4
  store i32 1, ptr %8, align 4
  br label %46

22:                                               ; preds = %2
  %23 = load ptr, ptr %4, align 8, !tbaa !4
  %24 = getelementptr inbounds nuw %struct.AVCodecContext, ptr %23, i32 0, i32 7
  %25 = load ptr, ptr %24, align 8, !tbaa !11
  %26 = getelementptr inbounds nuw %struct.AVCodecInternal, ptr %25, i32 0, i32 5
  %27 = load ptr, ptr %26, align 8, !tbaa !31
  store ptr %27, ptr %6, align 8, !tbaa !53
  %28 = load ptr, ptr %6, align 8, !tbaa !53
  %29 = getelementptr inbounds nuw %struct.PerThreadContext, ptr %28, i32 0, i32 0
  %30 = load ptr, ptr %29, align 8, !tbaa !65
  %31 = getelementptr inbounds nuw %struct.FrameThreadContext, ptr %30, i32 0, i32 0
  %32 = load ptr, ptr %31, align 8, !tbaa !47
  %33 = getelementptr inbounds %struct.PerThreadContext, ptr %32, i64 0
  %34 = getelementptr inbounds nuw %struct.PerThreadContext, ptr %33, i32 0, i32 9
  %35 = load ptr, ptr %34, align 8, !tbaa !56
  %36 = getelementptr inbounds nuw %struct.AVCodecContext, ptr %35, i32 0, i32 6
  %37 = load ptr, ptr %36, align 8, !tbaa !148
  %38 = load i64, ptr %5, align 8, !tbaa !62
  %39 = getelementptr inbounds nuw i8, ptr %37, i64 %38
  call void @llvm.memcpy.p0.p0.i64(ptr align 8 %7, ptr align 1 %39, i64 8, i1 false)
  %40 = load ptr, ptr %4, align 8, !tbaa !4
  %41 = getelementptr inbounds nuw %struct.AVCodecContext, ptr %40, i32 0, i32 6
  %42 = load ptr, ptr %41, align 8, !tbaa !148
  %43 = load i64, ptr %5, align 8, !tbaa !62
  %44 = getelementptr inbounds nuw i8, ptr %42, i64 %43
  %45 = load ptr, ptr %7, align 8, !tbaa !85
  call void @av_refstruct_replace(ptr noundef %44, ptr noundef %45)
  store i32 0, ptr %3, align 4
  store i32 1, ptr %8, align 4
  br label %46

46:                                               ; preds = %22, %15
  call void @llvm.lifetime.end.p0(i64 8, ptr %7) #9
  call void @llvm.lifetime.end.p0(i64 8, ptr %6) #9
  %47 = load i32, ptr %3, align 4
  ret i32 %47
}