; Function Attrs: cold nounwind optsize uwtable
define range(i32 0, 3) i32 @ff_thread_sync_ref(ptr noundef readonly captures(none) %0, i64 noundef %1) local_unnamed_addr #6 {
  %3 = getelementptr inbounds nuw i8, ptr %0, i64 40
  %4 = load ptr, ptr %3, align 8, !tbaa !4
  %5 = load i32, ptr %4, align 8, !tbaa !168
  %.not = icmp eq i32 %5, 0
  br i1 %.not, label %6, label %11

6:                                                ; preds = %2
  %7 = getelementptr inbounds nuw i8, ptr %0, i64 664
  %8 = load i32, ptr %7, align 8, !tbaa !136
  %9 = and i32 %8, 1
  %10 = sub nuw nsw i32 2, %9
  br label %24

11:                                               ; preds = %2
  %12 = getelementptr inbounds nuw i8, ptr %4, i64 32
  %13 = load ptr, ptr %12, align 8, !tbaa !27
  %14 = load ptr, ptr %13, align 8, !tbaa !44
  %15 = load ptr, ptr %14, align 8, !tbaa !42
  %16 = getelementptr inbounds nuw i8, ptr %15, i64 248
  %17 = load ptr, ptr %16, align 8, !tbaa !49
  %18 = getelementptr inbounds nuw i8, ptr %17, i64 32
  %19 = load ptr, ptr %18, align 8, !tbaa !144
  %20 = getelementptr inbounds nuw i8, ptr %19, i64 %1
  %.0.copyload = load ptr, ptr %20, align 1
  %21 = getelementptr inbounds nuw i8, ptr %0, i64 32
  %22 = load ptr, ptr %21, align 8, !tbaa !144
  %23 = getelementptr inbounds nuw i8, ptr %22, i64 %1
  tail call void @av_refstruct_replace(ptr noundef %23, ptr noundef %.0.copyload) #11
  br label %24

24:                                               ; preds = %11, %6
  %.0 = phi i32 [ 0, %11 ], [ %10, %6 ]
  ret i32 %.0
}